; ModuleID = '47/4196.c'
source_filename = "47/4196.c"
target datalayout = "e-m:e-p270:32:32-p271:32:32-p272:64:64-i64:64-f80:128-n8:16:32:64-S128"
target triple = "x86_64-pc-linux-gnu"

@.str = private unnamed_addr constant [3 x i8] c"%d\00", align 1
@.str.1 = private unnamed_addr constant [4 x i8] c"%d \00", align 1

; Function Attrs: noinline nounwind uwtable
define dso_local void @main() #0 {
  %1 = alloca i32, align 4
  %2 = alloca [128 x i32], align 16
  %3 = alloca i32*, align 8
  %4 = call i32 (i8*, ...) @__isoc99_scanf(i8* getelementptr inbounds ([3 x i8], [3 x i8]* @.str, i64 0, i64 0), i32* %1)
  %5 = getelementptr inbounds [128 x i32], [128 x i32]* %2, i64 0, i64 0
  %6 = load i32, i32* %1, align 4
  %7 = sext i32 %6 to i64
  %8 = getelementptr inbounds i32, i32* %5, i64 %7
  store i32* %8, i32** %3, align 8
  br label %9

9:                                                ; preds = %17, %0
  %10 = load i32*, i32** %3, align 8
  %11 = getelementptr inbounds [128 x i32], [128 x i32]* %2, i64 0, i64 0
  %12 = getelementptr inbounds i32, i32* %11, i64 1
  %13 = icmp uge i32* %10, %12
  br i1 %13, label %14, label %20

14:                                               ; preds = %9
  %15 = load i32*, i32** %3, align 8
  %16 = call i32 (i8*, ...) @__isoc99_scanf(i8* getelementptr inbounds ([3 x i8], [3 x i8]* @.str, i64 0, i64 0), i32* %15)
  br label %17

17:                                               ; preds = %14
  %18 = load i32*, i32** %3, align 8
  %19 = getelementptr inbounds i32, i32* %18, i32 -1
  store i32* %19, i32** %3, align 8
  br label %9

20:                                               ; preds = %9
  %21 = getelementptr inbounds [128 x i32], [128 x i32]* %2, i64 0, i64 0
  %22 = getelementptr inbounds i32, i32* %21, i64 1
  store i32* %22, i32** %3, align 8
  br label %23

23:                                               ; preds = %35, %20
  %24 = load i32*, i32** %3, align 8
  %25 = getelementptr inbounds [128 x i32], [128 x i32]* %2, i64 0, i64 0
  %26 = load i32, i32* %1, align 4
  %27 = sext i32 %26 to i64
  %28 = getelementptr inbounds i32, i32* %25, i64 %27
  %29 = getelementptr inbounds i32, i32* %28, i64 -1
  %30 = icmp ule i32* %24, %29
  br i1 %30, label %31, label %38

31:                                               ; preds = %23
  %32 = load i32*, i32** %3, align 8
  %33 = load i32, i32* %32, align 4
  %34 = call i32 (i8*, ...) @printf(i8* getelementptr inbounds ([4 x i8], [4 x i8]* @.str.1, i64 0, i64 0), i32 %33)
  br label %35

35:                                               ; preds = %31
  %36 = load i32*, i32** %3, align 8
  %37 = getelementptr inbounds i32, i32* %36, i32 1
  store i32* %37, i32** %3, align 8
  br label %23

38:                                               ; preds = %23
  %39 = load i32*, i32** %3, align 8
  %40 = load i32, i32* %39, align 4
  %41 = call i32 (i8*, ...) @printf(i8* getelementptr inbounds ([3 x i8], [3 x i8]* @.str, i64 0, i64 0), i32 %40)
  ret void
}

declare dso_local i32 @__isoc99_scanf(i8*, ...) #1

declare dso_local i32 @printf(i8*, ...) #1


!llvm.module.flags = !{!0}
!llvm.ident = !{!1}

!0 = !{i32 1, !"wchar_size", i32 4}
!1 = !{!"clang version 10.0.0-4ubuntu1 "}
