; ModuleID = 'source-C-CXX/46/4196.c'
source_filename = "source-C-CXX/46/4196.c"
target datalayout = "e-m:e-p270:32:32-p271:32:32-p272:64:64-i64:64-f80:128-n8:16:32:64-S128"
target triple = "x86_64-pc-linux-gnu"

@.str = private unnamed_addr constant [3 x i8] c"%d\00", align 1
@.str.1 = private unnamed_addr constant [4 x i8] c"%d \00", align 1

; Function Attrs: nofree nounwind sspstrong uwtable
define dso_local void @main() local_unnamed_addr #0 {
  %1 = alloca i32, align 4
  %2 = alloca [128 x i32], align 16
  %3 = bitcast i32* %1 to i8*
  call void @llvm.lifetime.start.p0i8(i64 4, i8* nonnull %3) #3
  %4 = bitcast [128 x i32]* %2 to i8*
  call void @llvm.lifetime.start.p0i8(i64 512, i8* nonnull %4) #3
  %5 = call i32 (i8*, ...) @__isoc99_scanf(i8* getelementptr inbounds ([3 x i8], [3 x i8]* @.str, i64 0, i64 0), i32* nonnull %1)
  %6 = load i32, i32* %1, align 4, !tbaa !5
  %7 = sext i32 %6 to i64
  %8 = getelementptr inbounds [128 x i32], [128 x i32]* %2, i64 0, i64 1
  %9 = icmp slt i32 %6, 1
  br i1 %9, label %15, label %10

10:                                               ; preds = %0
  %11 = getelementptr inbounds [128 x i32], [128 x i32]* %2, i64 0, i64 %7
  br label %20

12:                                               ; preds = %20
  %13 = load i32, i32* %1, align 4, !tbaa !5
  %14 = sext i32 %13 to i64
  br label %15

15:                                               ; preds = %12, %0
  %16 = phi i64 [ %14, %12 ], [ %7, %0 ]
  %17 = getelementptr inbounds [128 x i32], [128 x i32]* %2, i64 0, i64 %16
  %18 = getelementptr inbounds i32, i32* %17, i64 -1
  %19 = icmp ugt i32* %8, %18
  br i1 %19, label %35, label %25

20:                                               ; preds = %10, %20
  %21 = phi i32* [ %23, %20 ], [ %11, %10 ]
  %22 = call i32 (i8*, ...) @__isoc99_scanf(i8* getelementptr inbounds ([3 x i8], [3 x i8]* @.str, i64 0, i64 0), i32* nonnull %21)
  %23 = getelementptr inbounds i32, i32* %21, i64 -1
  %24 = icmp ult i32* %23, %8
  br i1 %24, label %12, label %20, !llvm.loop !9

25:                                               ; preds = %15, %25
  %26 = phi i32* [ %29, %25 ], [ %8, %15 ]
  %27 = load i32, i32* %26, align 4, !tbaa !5
  %28 = call i32 (i8*, ...) @printf(i8* nonnull dereferenceable(1) getelementptr inbounds ([4 x i8], [4 x i8]* @.str.1, i64 0, i64 0), i32 %27)
  %29 = getelementptr inbounds i32, i32* %26, i64 1
  %30 = load i32, i32* %1, align 4, !tbaa !5
  %31 = sext i32 %30 to i64
  %32 = getelementptr inbounds [128 x i32], [128 x i32]* %2, i64 0, i64 %31
  %33 = getelementptr inbounds i32, i32* %32, i64 -1
  %34 = icmp ugt i32* %29, %33
  br i1 %34, label %35, label %25, !llvm.loop !11

35:                                               ; preds = %25, %15
  %36 = phi i32* [ %8, %15 ], [ %29, %25 ]
  %37 = load i32, i32* %36, align 4, !tbaa !5
  %38 = call i32 (i8*, ...) @printf(i8* nonnull dereferenceable(1) getelementptr inbounds ([3 x i8], [3 x i8]* @.str, i64 0, i64 0), i32 %37)
  call void @llvm.lifetime.end.p0i8(i64 512, i8* nonnull %4) #3
  call void @llvm.lifetime.end.p0i8(i64 4, i8* nonnull %3) #3
  ret void
}

; Function Attrs: argmemonly mustprogress nofree nosync nounwind willreturn
declare void @llvm.lifetime.start.p0i8(i64 immarg, i8* nocapture) #1

; Function Attrs: nofree nounwind
declare noundef i32 @__isoc99_scanf(i8* nocapture noundef readonly, ...) local_unnamed_addr #2

; Function Attrs: nofree nounwind
declare noundef i32 @printf(i8* nocapture noundef readonly, ...) local_unnamed_addr #2

; Function Attrs: argmemonly mustprogress nofree nosync nounwind willreturn
declare void @llvm.lifetime.end.p0i8(i64 immarg, i8* nocapture) #1


!llvm.module.flags = !{!0, !1, !2, !3}
!llvm.ident = !{!4}

!0 = !{i32 1, !"wchar_size", i32 4}
!1 = !{i32 7, !"PIC Level", i32 2}
!2 = !{i32 7, !"PIE Level", i32 2}
!3 = !{i32 7, !"uwtable", i32 1}
!4 = !{!"clang version 13.0.0"}
!5 = !{!6, !6, i64 0}
!6 = !{!"int", !7, i64 0}
!7 = !{!"omnipotent char", !8, i64 0}
!8 = !{!"Simple C/C++ TBAA"}
!9 = distinct !{!9, !10}
!10 = !{!"llvm.loop.mustprogress"}
!11 = distinct !{!11, !10}
